; Function Attrs: nounwind uwtable
define dso_local noundef i64 @multirange_intersect_agg_transfn(ptr noundef %0) local_unnamed_addr #0 {
  %2 = alloca ptr, align 8
  call void @llvm.lifetime.start.p0(i64 8, ptr nonnull %2) #11
  %3 = call i32 @AggCheckCallContext(ptr noundef %0, ptr noundef nonnull %2) #11
  %.not = icmp eq i32 %3, 0
  br i1 %.not, label %4, label %7

4:                                                ; preds = %1
  %5 = call zeroext i1 @errstart_cold(i32 noundef 21, ptr noundef null) #13
  call void @llvm.assume(i1 %5)
  %6 = call i32 (ptr, ...) @errmsg_internal(ptr noundef nonnull @.str.19) #11
  call void @errfinish(ptr noundef nonnull @.str.2, i32 noundef 1478, ptr noundef nonnull @__func__.multirange_intersect_agg_transfn) #11
  unreachable

7:                                                ; preds = %1
  %8 = load ptr, ptr %0, align 8
  %9 = call i32 @get_fn_expr_argtype(ptr noundef %8, i32 noundef 1) #11
  %10 = call zeroext i1 @type_is_multirange(i32 noundef %9) #11
  br i1 %10, label %14, label %11

11:                                               ; preds = %7
  %12 = call zeroext i1 @errstart_cold(i32 noundef 21, ptr noundef null) #13
  call void @llvm.assume(i1 %12)
  %13 = call i32 (ptr, ...) @errmsg_internal(ptr noundef nonnull @.str.20) #11
  call void @errfinish(ptr noundef nonnull @.str.2, i32 noundef 1482, ptr noundef nonnull @__func__.multirange_intersect_agg_transfn) #11
  unreachable

14:                                               ; preds = %7
  %15 = load ptr, ptr %0, align 8
  %16 = getelementptr inbounds nuw i8, ptr %15, i64 24
  %17 = load ptr, ptr %16, align 8
  %18 = icmp eq ptr %17, null
  br i1 %18, label %21, label %19

19:                                               ; preds = %14
  %20 = load i32, ptr %17, align 8
  %.not.i = icmp eq i32 %20, %9
  br i1 %.not.i, label %multirange_get_typcache.exit, label %21

21:                                               ; preds = %19, %14
  %22 = call ptr @lookup_type_cache(i32 noundef %9, i32 noundef 65536) #11
  %23 = getelementptr inbounds nuw i8, ptr %22, i64 440
  %24 = load ptr, ptr %23, align 8
  %25 = icmp eq ptr %24, null
  br i1 %25, label %26, label %29

26:                                               ; preds = %21
  %27 = call zeroext i1 @errstart_cold(i32 noundef 21, ptr noundef null) #13
  call void @llvm.assume(i1 %27)
  %28 = call i32 (ptr, ...) @errmsg_internal(ptr noundef nonnull @.str.9, i32 noundef %9) #11
  call void @errfinish(ptr noundef nonnull @.str.2, i32 noundef 557, ptr noundef nonnull @__func__.multirange_get_typcache) #11
  unreachable

29:                                               ; preds = %21
  %30 = load ptr, ptr %0, align 8
  %31 = getelementptr inbounds nuw i8, ptr %30, i64 24
  store ptr %22, ptr %31, align 8
  br label %multirange_get_typcache.exit

multirange_get_typcache.exit:                     ; preds = %19, %29
  %.0.i = phi ptr [ %22, %29 ], [ %17, %19 ]
  %32 = getelementptr inbounds nuw i8, ptr %0, i64 32
  %33 = load i64, ptr %32, align 8
  %34 = inttoptr i64 %33 to ptr
  %35 = call ptr @pg_detoast_datum(ptr noundef %34) #11
  %36 = getelementptr inbounds nuw i8, ptr %0, i64 48
  %37 = load i64, ptr %36, align 8
  %38 = inttoptr i64 %37 to ptr
  %39 = call ptr @pg_detoast_datum(ptr noundef %38) #11
  %40 = getelementptr inbounds nuw i8, ptr %.0.i, i64 440
  %41 = load ptr, ptr %40, align 8
  %42 = getelementptr inbounds nuw i8, ptr %35, i64 8
  %43 = load i32, ptr %42, align 4
  %44 = icmp sgt i32 %43, 0
  br i1 %44, label %45, label %multirange_deserialize.exit

45:                                               ; preds = %multirange_get_typcache.exit
  %46 = zext nneg i32 %43 to i64
  %47 = shl nuw nsw i64 %46, 3
  %48 = call ptr @palloc(i64 noundef %47) #11
  br label %.lr.ph.i

.lr.ph.i:                                         ; preds = %45, %.lr.ph.i
  %indvars.iv.i = phi i64 [ %indvars.iv.next.i, %.lr.ph.i ], [ 0, %45 ]
  %49 = trunc nuw nsw i64 %indvars.iv.i to i32
  %50 = call ptr @multirange_get_range(ptr noundef readonly %41, ptr noundef %35, i32 noundef %49)
  %51 = getelementptr inbounds nuw ptr, ptr %48, i64 %indvars.iv.i
  store ptr %50, ptr %51, align 8
  %indvars.iv.next.i = add nuw nsw i64 %indvars.iv.i, 1
  %exitcond.not = icmp eq i64 %indvars.iv.next.i, %46
  br i1 %exitcond.not, label %multirange_deserialize.exit.loopexit, label %.lr.ph.i, !llvm.loop !11

multirange_deserialize.exit.loopexit:             ; preds = %.lr.ph.i
  %.pre = load ptr, ptr %40, align 8
  br label %multirange_deserialize.exit

multirange_deserialize.exit:                      ; preds = %multirange_deserialize.exit.loopexit, %multirange_get_typcache.exit
  %52 = phi ptr [ %41, %multirange_get_typcache.exit ], [ %.pre, %multirange_deserialize.exit.loopexit ]
  %.025 = phi ptr [ null, %multirange_get_typcache.exit ], [ %48, %multirange_deserialize.exit.loopexit ]
  %53 = getelementptr inbounds nuw i8, ptr %39, i64 8
  %54 = load i32, ptr %53, align 4
  %55 = icmp sgt i32 %54, 0
  br i1 %55, label %56, label %multirange_deserialize.exit16

56:                                               ; preds = %multirange_deserialize.exit
  %57 = zext nneg i32 %54 to i64
  %58 = shl nuw nsw i64 %57, 3
  %59 = call ptr @palloc(i64 noundef %58) #11
  br label %.lr.ph.i13

.lr.ph.i13:                                       ; preds = %56, %.lr.ph.i13
  %indvars.iv.i14 = phi i64 [ %indvars.iv.next.i15, %.lr.ph.i13 ], [ 0, %56 ]
  %60 = trunc nuw nsw i64 %indvars.iv.i14 to i32
  %61 = call ptr @multirange_get_range(ptr noundef readonly %52, ptr noundef %39, i32 noundef %60)
  %62 = getelementptr inbounds nuw ptr, ptr %59, i64 %indvars.iv.i14
  store ptr %61, ptr %62, align 8
  %indvars.iv.next.i15 = add nuw nsw i64 %indvars.iv.i14, 1
  %exitcond26.not = icmp eq i64 %indvars.iv.next.i15, %57
  br i1 %exitcond26.not, label %multirange_deserialize.exit16.loopexit, label %.lr.ph.i13, !llvm.loop !11

multirange_deserialize.exit16.loopexit:           ; preds = %.lr.ph.i13
  %.pre27 = load ptr, ptr %40, align 8
  br label %multirange_deserialize.exit16

multirange_deserialize.exit16:                    ; preds = %multirange_deserialize.exit16.loopexit, %multirange_deserialize.exit
  %63 = phi ptr [ %52, %multirange_deserialize.exit ], [ %.pre27, %multirange_deserialize.exit16.loopexit ]
  %.0 = phi ptr [ null, %multirange_deserialize.exit ], [ %59, %multirange_deserialize.exit16.loopexit ]
  %64 = call ptr @multirange_intersect_internal(i32 noundef %9, ptr noundef %63, i32 noundef %43, ptr noundef %.025, i32 noundef %54, ptr noundef %.0)
  %65 = ptrtoint ptr %64 to i64
  call void @llvm.lifetime.end.p0(i64 8, ptr nonnull %2) #11
  ret i64 %65
}